target datalayout = "e-m:e-p270:32:32-p271:32:32-p272:64:64-i64:64-i128:128-f80:128-n8:16:32:64-S128"
target triple = "x86_64-pc-linux-gnu"

%"class.absl::Duration" = type { %"class.absl::Duration::HiRep", i32 }
%"class.absl::Duration::HiRep" = type { i32, i32 }
%"class.absl::Time" = type { %"class.absl::Duration" }
%struct.timespec = type { i64, i64 }

; Function Attrs: mustprogress nounwind uwtable
define linkonce_odr dso_local noundef nonnull align 4 dereferenceable(8) ptr @_ZN4absl8Duration5HiRepaSEl(ptr noundef nonnull align 4 dereferenceable(8) %0, i64 noundef %1) #5 comdat align 2 {
  %3 = alloca ptr, align 8
  %4 = alloca i64, align 8
  %5 = alloca i64, align 8
  store ptr %0, ptr %3, align 8, !tbaa !139
  store i64 %1, ptr %4, align 8, !tbaa !12
  %6 = load ptr, ptr %3, align 8
  call void @llvm.lifetime.start.p0(i64 8, ptr %5) #15
  %7 = load i64, ptr %4, align 8, !tbaa !12
  store i64 %7, ptr %5, align 8, !tbaa !12
  %8 = load i64, ptr %5, align 8, !tbaa !12
  %9 = lshr i64 %8, 32
  %10 = trunc i64 %9 to i32
  %11 = getelementptr inbounds nuw %"class.absl::Duration::HiRep", ptr %6, i32 0, i32 1
  store i32 %10, ptr %11, align 4, !tbaa !141
  %12 = load i64, ptr %5, align 8, !tbaa !12
  %13 = trunc i64 %12 to i32
  %14 = getelementptr inbounds nuw %"class.absl::Duration::HiRep", ptr %6, i32 0, i32 0
  store i32 %13, ptr %14, align 4, !tbaa !142
  call void @llvm.lifetime.end.p0(i64 8, ptr %5) #15
  ret ptr %6
}

; Function Attrs: mustprogress uwtable
define linkonce_odr dso_local void @_ZN4absl8Duration5HiRepC2El(ptr noundef nonnull align 4 dereferenceable(8) %0, i64 noundef %1) unnamed_addr #0 comdat align 2 {
  %3 = alloca ptr, align 8
  %4 = alloca i64, align 8
  store ptr %0, ptr %3, align 8, !tbaa !139
  store i64 %1, ptr %4, align 8, !tbaa !12
  %5 = load ptr, ptr %3, align 8
  %6 = getelementptr inbounds nuw %"class.absl::Duration::HiRep", ptr %5, i32 0, i32 0
  store i32 0, ptr %6, align 4, !tbaa !142
  %7 = getelementptr inbounds nuw %"class.absl::Duration::HiRep", ptr %5, i32 0, i32 1
  store i32 0, ptr %7, align 4, !tbaa !141
  %8 = load i64, ptr %4, align 8, !tbaa !12
  %9 = call noundef nonnull align 4 dereferenceable(8) ptr @_ZN4absl8Duration5HiRepaSEl(ptr noundef nonnull align 4 dereferenceable(8) %5, i64 noundef %8)
  ret void
}

; Function Attrs: mustprogress nounwind willreturn memory(none) uwtable
define linkonce_odr dso_local noundef zeroext i1 @_ZN4abslltENS_8DurationES0_(i64 %0, i32 %1, i64 %2, i32 %3) #1 comdat {
  %5 = alloca %"class.absl::Duration", align 4
  %6 = alloca { i64, i32 }, align 4
  %7 = alloca %"class.absl::Duration", align 4
  %8 = alloca { i64, i32 }, align 4
  %9 = alloca %"class.absl::Duration", align 4
  %10 = alloca { i64, i32 }, align 4
  %11 = alloca %"class.absl::Duration", align 4
  %12 = alloca { i64, i32 }, align 4
  %13 = alloca %"class.absl::Duration", align 4
  %14 = alloca { i64, i32 }, align 4
  %15 = alloca %"class.absl::Duration", align 4
  %16 = alloca { i64, i32 }, align 4
  %17 = alloca %"class.absl::Duration", align 4
  %18 = alloca { i64, i32 }, align 4
  %19 = alloca %"class.absl::Duration", align 4
  %20 = alloca { i64, i32 }, align 4
  %21 = alloca %"class.absl::Duration", align 4
  %22 = alloca { i64, i32 }, align 4
  %23 = alloca %"class.absl::Duration", align 4
  %24 = alloca { i64, i32 }, align 4
  %25 = alloca %"class.absl::Duration", align 4
  %26 = alloca { i64, i32 }, align 4
  %27 = getelementptr inbounds nuw { i64, i32 }, ptr %6, i32 0, i32 0
  store i64 %0, ptr %27, align 4
  %28 = getelementptr inbounds nuw { i64, i32 }, ptr %6, i32 0, i32 1
  store i32 %1, ptr %28, align 4
  call void @llvm.memcpy.p0.p0.i64(ptr align 4 %5, ptr align 4 %6, i64 12, i1 false)
  %29 = getelementptr inbounds nuw { i64, i32 }, ptr %8, i32 0, i32 0
  store i64 %2, ptr %29, align 4
  %30 = getelementptr inbounds nuw { i64, i32 }, ptr %8, i32 0, i32 1
  store i32 %3, ptr %30, align 4
  call void @llvm.memcpy.p0.p0.i64(ptr align 4 %7, ptr align 4 %8, i64 12, i1 false)
  call void @llvm.memcpy.p0.p0.i64(ptr align 4 %9, ptr align 4 %5, i64 12, i1 false), !tbaa.struct !9
  call void @llvm.memcpy.p0.p0.i64(ptr align 4 %10, ptr align 4 %9, i64 12, i1 false)
  %31 = getelementptr inbounds nuw { i64, i32 }, ptr %10, i32 0, i32 0
  %32 = load i64, ptr %31, align 4
  %33 = getelementptr inbounds nuw { i64, i32 }, ptr %10, i32 0, i32 1
  %34 = load i32, ptr %33, align 4
  %35 = call noundef i64 @_ZN4absl13time_internal8GetRepHiENS_8DurationE(i64 %32, i32 %34) #14
  call void @llvm.memcpy.p0.p0.i64(ptr align 4 %11, ptr align 4 %7, i64 12, i1 false), !tbaa.struct !9
  call void @llvm.memcpy.p0.p0.i64(ptr align 4 %12, ptr align 4 %11, i64 12, i1 false)
  %36 = getelementptr inbounds nuw { i64, i32 }, ptr %12, i32 0, i32 0
  %37 = load i64, ptr %36, align 4
  %38 = getelementptr inbounds nuw { i64, i32 }, ptr %12, i32 0, i32 1
  %39 = load i32, ptr %38, align 4
  %40 = call noundef i64 @_ZN4absl13time_internal8GetRepHiENS_8DurationE(i64 %37, i32 %39) #14
  %41 = icmp ne i64 %35, %40
  br i1 %41, label %42, label %54

42:                                               ; preds = %4
  call void @llvm.memcpy.p0.p0.i64(ptr align 4 %13, ptr align 4 %5, i64 12, i1 false), !tbaa.struct !9
  call void @llvm.memcpy.p0.p0.i64(ptr align 4 %14, ptr align 4 %13, i64 12, i1 false)
  %43 = getelementptr inbounds nuw { i64, i32 }, ptr %14, i32 0, i32 0
  %44 = load i64, ptr %43, align 4
  %45 = getelementptr inbounds nuw { i64, i32 }, ptr %14, i32 0, i32 1
  %46 = load i32, ptr %45, align 4
  %47 = call noundef i64 @_ZN4absl13time_internal8GetRepHiENS_8DurationE(i64 %44, i32 %46) #14
  call void @llvm.memcpy.p0.p0.i64(ptr align 4 %15, ptr align 4 %7, i64 12, i1 false), !tbaa.struct !9
  call void @llvm.memcpy.p0.p0.i64(ptr align 4 %16, ptr align 4 %15, i64 12, i1 false)
  %48 = getelementptr inbounds nuw { i64, i32 }, ptr %16, i32 0, i32 0
  %49 = load i64, ptr %48, align 4
  %50 = getelementptr inbounds nuw { i64, i32 }, ptr %16, i32 0, i32 1
  %51 = load i32, ptr %50, align 4
  %52 = call noundef i64 @_ZN4absl13time_internal8GetRepHiENS_8DurationE(i64 %49, i32 %51) #14
  %53 = icmp slt i64 %47, %52
  br label %90

54:                                               ; preds = %4
  call void @llvm.memcpy.p0.p0.i64(ptr align 4 %17, ptr align 4 %5, i64 12, i1 false), !tbaa.struct !9
  call void @llvm.memcpy.p0.p0.i64(ptr align 4 %18, ptr align 4 %17, i64 12, i1 false)
  %55 = getelementptr inbounds nuw { i64, i32 }, ptr %18, i32 0, i32 0
  %56 = load i64, ptr %55, align 4
  %57 = getelementptr inbounds nuw { i64, i32 }, ptr %18, i32 0, i32 1
  %58 = load i32, ptr %57, align 4
  %59 = call noundef i64 @_ZN4absl13time_internal8GetRepHiENS_8DurationE(i64 %56, i32 %58) #14
  %60 = call noundef i64 @_ZNSt14numeric_limitsIlE3minEv() #15
  %61 = icmp eq i64 %59, %60
  br i1 %61, label %62, label %76

62:                                               ; preds = %54
  call void @llvm.memcpy.p0.p0.i64(ptr align 4 %19, ptr align 4 %5, i64 12, i1 false), !tbaa.struct !9
  call void @llvm.memcpy.p0.p0.i64(ptr align 4 %20, ptr align 4 %19, i64 12, i1 false)
  %63 = getelementptr inbounds nuw { i64, i32 }, ptr %20, i32 0, i32 0
  %64 = load i64, ptr %63, align 4
  %65 = getelementptr inbounds nuw { i64, i32 }, ptr %20, i32 0, i32 1
  %66 = load i32, ptr %65, align 4
  %67 = call noundef i32 @_ZN4absl13time_internal8GetRepLoENS_8DurationE(i64 %64, i32 %66) #14
  %68 = add i32 %67, 1
  call void @llvm.memcpy.p0.p0.i64(ptr align 4 %21, ptr align 4 %7, i64 12, i1 false), !tbaa.struct !9
  call void @llvm.memcpy.p0.p0.i64(ptr align 4 %22, ptr align 4 %21, i64 12, i1 false)
  %69 = getelementptr inbounds nuw { i64, i32 }, ptr %22, i32 0, i32 0
  %70 = load i64, ptr %69, align 4
  %71 = getelementptr inbounds nuw { i64, i32 }, ptr %22, i32 0, i32 1
  %72 = load i32, ptr %71, align 4
  %73 = call noundef i32 @_ZN4absl13time_internal8GetRepLoENS_8DurationE(i64 %70, i32 %72) #14
  %74 = add i32 %73, 1
  %75 = icmp ult i32 %68, %74
  br label %88

76:                                               ; preds = %54
  call void @llvm.memcpy.p0.p0.i64(ptr align 4 %23, ptr align 4 %5, i64 12, i1 false), !tbaa.struct !9
  call void @llvm.memcpy.p0.p0.i64(ptr align 4 %24, ptr align 4 %23, i64 12, i1 false)
  %77 = getelementptr inbounds nuw { i64, i32 }, ptr %24, i32 0, i32 0
  %78 = load i64, ptr %77, align 4
  %79 = getelementptr inbounds nuw { i64, i32 }, ptr %24, i32 0, i32 1
  %80 = load i32, ptr %79, align 4
  %81 = call noundef i32 @_ZN4absl13time_internal8GetRepLoENS_8DurationE(i64 %78, i32 %80) #14
  call void @llvm.memcpy.p0.p0.i64(ptr align 4 %25, ptr align 4 %7, i64 12, i1 false), !tbaa.struct !9
  call void @llvm.memcpy.p0.p0.i64(ptr align 4 %26, ptr align 4 %25, i64 12, i1 false)
  %82 = getelementptr inbounds nuw { i64, i32 }, ptr %26, i32 0, i32 0
  %83 = load i64, ptr %82, align 4
  %84 = getelementptr inbounds nuw { i64, i32 }, ptr %26, i32 0, i32 1
  %85 = load i32, ptr %84, align 4
  %86 = call noundef i32 @_ZN4absl13time_internal8GetRepLoENS_8DurationE(i64 %83, i32 %85) #14
  %87 = icmp ult i32 %81, %86
  br label %88

88:                                               ; preds = %76, %62
  %89 = phi i1 [ %75, %62 ], [ %87, %76 ]
  br label %90

90:                                               ; preds = %88, %42
  %91 = phi i1 [ %53, %42 ], [ %89, %88 ]
  ret i1 %91
}

; Function Attrs: mustprogress uwtable
define linkonce_odr dso_local void @_ZN4absl8DurationC2Ev(ptr noundef nonnull align 4 dereferenceable(12) %0) unnamed_addr #0 comdat align 2 {
  %2 = alloca ptr, align 8
  store ptr %0, ptr %2, align 8, !tbaa !151
  %3 = load ptr, ptr %2, align 8
  %4 = getelementptr inbounds nuw %"class.absl::Duration", ptr %3, i32 0, i32 0
  call void @_ZN4absl8Duration5HiRepC2El(ptr noundef nonnull align 4 dereferenceable(8) %4, i64 noundef 0)
  %5 = getelementptr inbounds nuw %"class.absl::Duration", ptr %3, i32 0, i32 1
  store i32 0, ptr %5, align 4, !tbaa !68
  ret void
}

; Function Attrs: mustprogress nounwind uwtable
define linkonce_odr dso_local noundef i64 @_ZNK4absl8Duration5HiRep3GetEv(ptr noundef nonnull align 4 dereferenceable(8) %0) #5 comdat align 2 {
  %2 = alloca ptr, align 8
  %3 = alloca i64, align 8
  store ptr %0, ptr %2, align 8, !tbaa !139
  %4 = load ptr, ptr %2, align 8
  call void @llvm.lifetime.start.p0(i64 8, ptr %3) #15
  %5 = getelementptr inbounds nuw %"class.absl::Duration::HiRep", ptr %4, i32 0, i32 1
  %6 = load i32, ptr %5, align 4, !tbaa !141
  %7 = zext i32 %6 to i64
  %8 = shl i64 %7, 32
  %9 = getelementptr inbounds nuw %"class.absl::Duration::HiRep", ptr %4, i32 0, i32 0
  %10 = load i32, ptr %9, align 4, !tbaa !142
  %11 = zext i32 %10 to i64
  %12 = or i64 %8, %11
  store i64 %12, ptr %3, align 8, !tbaa !12
  %13 = load i64, ptr %3, align 8, !tbaa !12
  call void @llvm.lifetime.end.p0(i64 8, ptr %3) #15
  ret i64 %13
}

; Function Attrs: mustprogress nounwind uwtable
define linkonce_odr dso_local noundef i64 @_ZNSt14numeric_limitsIlE3minEv() #5 comdat align 2 {
  ret i64 -9223372036854775808
}

; Function Attrs: mustprogress nounwind uwtable
define linkonce_odr dso_local noundef i64 @_ZNSt14numeric_limitsIlE3maxEv() #5 comdat align 2 {
  ret i64 9223372036854775807
}

; Function Attrs: mustprogress nounwind willreturn memory(none) uwtable
define linkonce_odr dso_local noundef zeroext i1 @_ZN4abslgeENS_8DurationES0_(i64 %0, i32 %1, i64 %2, i32 %3) #1 comdat {
  %5 = alloca %"class.absl::Duration", align 4
  %6 = alloca { i64, i32 }, align 4
  %7 = alloca %"class.absl::Duration", align 4
  %8 = alloca { i64, i32 }, align 4
  %9 = alloca %"class.absl::Duration", align 4
  %10 = alloca %"class.absl::Duration", align 4
  %11 = alloca { i64, i32 }, align 4
  %12 = alloca { i64, i32 }, align 4
  %13 = getelementptr inbounds nuw { i64, i32 }, ptr %6, i32 0, i32 0
  store i64 %0, ptr %13, align 4
  %14 = getelementptr inbounds nuw { i64, i32 }, ptr %6, i32 0, i32 1
  store i32 %1, ptr %14, align 4
  call void @llvm.memcpy.p0.p0.i64(ptr align 4 %5, ptr align 4 %6, i64 12, i1 false)
  %15 = getelementptr inbounds nuw { i64, i32 }, ptr %8, i32 0, i32 0
  store i64 %2, ptr %15, align 4
  %16 = getelementptr inbounds nuw { i64, i32 }, ptr %8, i32 0, i32 1
  store i32 %3, ptr %16, align 4
  call void @llvm.memcpy.p0.p0.i64(ptr align 4 %7, ptr align 4 %8, i64 12, i1 false)
  call void @llvm.memcpy.p0.p0.i64(ptr align 4 %9, ptr align 4 %5, i64 12, i1 false), !tbaa.struct !9
  call void @llvm.memcpy.p0.p0.i64(ptr align 4 %10, ptr align 4 %7, i64 12, i1 false), !tbaa.struct !9
  call void @llvm.memcpy.p0.p0.i64(ptr align 4 %11, ptr align 4 %9, i64 12, i1 false)
  %17 = getelementptr inbounds nuw { i64, i32 }, ptr %11, i32 0, i32 0
  %18 = load i64, ptr %17, align 4
  %19 = getelementptr inbounds nuw { i64, i32 }, ptr %11, i32 0, i32 1
  %20 = load i32, ptr %19, align 4
  call void @llvm.memcpy.p0.p0.i64(ptr align 4 %12, ptr align 4 %10, i64 12, i1 false)
  %21 = getelementptr inbounds nuw { i64, i32 }, ptr %12, i32 0, i32 0
  %22 = load i64, ptr %21, align 4
  %23 = getelementptr inbounds nuw { i64, i32 }, ptr %12, i32 0, i32 1
  %24 = load i32, ptr %23, align 4
  %25 = call noundef zeroext i1 @_ZN4abslltENS_8DurationES0_(i64 %18, i32 %20, i64 %22, i32 %24) #14
  %26 = xor i1 %25, true
  ret i1 %26
}

; Function Attrs: mustprogress nounwind willreturn memory(none) uwtable
define linkonce_odr dso_local { i64, i32 } @_ZN4absl12ZeroDurationEv() #1 comdat {
  %1 = alloca %"class.absl::Duration", align 4
  %2 = alloca { i64, i32 }, align 8
  call void @_ZN4absl8DurationC2Ev(ptr noundef nonnull align 4 dereferenceable(12) %1)
  call void @llvm.memcpy.p0.p0.i64(ptr align 8 %2, ptr align 4 %1, i64 12, i1 false)
  %3 = load { i64, i32 }, ptr %2, align 8
  ret { i64, i32 } %3
}

; Function Attrs: mustprogress nounwind willreturn memory(none) uwtable
define linkonce_odr dso_local noundef i32 @_ZN4absl13time_internal8GetRepLoENS_8DurationE(i64 %0, i32 %1) #1 comdat {
  %3 = alloca %"class.absl::Duration", align 4
  %4 = alloca { i64, i32 }, align 4
  %5 = getelementptr inbounds nuw { i64, i32 }, ptr %4, i32 0, i32 0
  store i64 %0, ptr %5, align 4
  %6 = getelementptr inbounds nuw { i64, i32 }, ptr %4, i32 0, i32 1
  store i32 %1, ptr %6, align 4
  call void @llvm.memcpy.p0.p0.i64(ptr align 4 %3, ptr align 4 %4, i64 12, i1 false)
  %7 = getelementptr inbounds nuw %"class.absl::Duration", ptr %3, i32 0, i32 1
  %8 = load i32, ptr %7, align 4, !tbaa !68
  ret i32 %8
}

; Function Attrs: mustprogress nounwind willreturn memory(none) uwtable
define linkonce_odr dso_local noundef i64 @_ZN4absl13time_internal8GetRepHiENS_8DurationE(i64 %0, i32 %1) #1 comdat {
  %3 = alloca %"class.absl::Duration", align 4
  %4 = alloca { i64, i32 }, align 4
  %5 = getelementptr inbounds nuw { i64, i32 }, ptr %4, i32 0, i32 0
  store i64 %0, ptr %5, align 4
  %6 = getelementptr inbounds nuw { i64, i32 }, ptr %4, i32 0, i32 1
  store i32 %1, ptr %6, align 4
  call void @llvm.memcpy.p0.p0.i64(ptr align 4 %3, ptr align 4 %4, i64 12, i1 false)
  %7 = getelementptr inbounds nuw %"class.absl::Duration", ptr %3, i32 0, i32 0
  %8 = call noundef i64 @_ZNK4absl8Duration5HiRep3GetEv(ptr noundef nonnull align 4 dereferenceable(8) %7)
  ret i64 %8
}

; Function Attrs: mustprogress nounwind willreturn memory(none) uwtable
define linkonce_odr dso_local noundef zeroext i1 @_ZN4absl13time_internal18IsInfiniteDurationENS_8DurationE(i64 %0, i32 %1) #1 comdat {
  %3 = alloca %"class.absl::Duration", align 4
  %4 = alloca { i64, i32 }, align 4
  %5 = alloca %"class.absl::Duration", align 4
  %6 = alloca { i64, i32 }, align 4
  %7 = getelementptr inbounds nuw { i64, i32 }, ptr %4, i32 0, i32 0
  store i64 %0, ptr %7, align 4
  %8 = getelementptr inbounds nuw { i64, i32 }, ptr %4, i32 0, i32 1
  store i32 %1, ptr %8, align 4
  call void @llvm.memcpy.p0.p0.i64(ptr align 4 %3, ptr align 4 %4, i64 12, i1 false)
  call void @llvm.memcpy.p0.p0.i64(ptr align 4 %5, ptr align 4 %3, i64 12, i1 false), !tbaa.struct !9
  call void @llvm.memcpy.p0.p0.i64(ptr align 4 %6, ptr align 4 %5, i64 12, i1 false)
  %9 = getelementptr inbounds nuw { i64, i32 }, ptr %6, i32 0, i32 0
  %10 = load i64, ptr %9, align 4
  %11 = getelementptr inbounds nuw { i64, i32 }, ptr %6, i32 0, i32 1
  %12 = load i32, ptr %11, align 4
  %13 = call noundef i32 @_ZN4absl13time_internal8GetRepLoENS_8DurationE(i64 %10, i32 %12) #14
  %14 = icmp eq i32 %13, -1
  ret i1 %14
}

; Function Attrs: mustprogress nounwind willreturn memory(none) uwtable
define linkonce_odr dso_local { i64, i32 } @_ZN4absl13time_internal14ToUnixDurationENS_4TimeE(i64 %0, i32 %1) #1 comdat {
  %3 = alloca %"class.absl::Duration", align 4
  %4 = alloca %"class.absl::Time", align 4
  %5 = alloca { i64, i32 }, align 4
  %6 = alloca { i64, i32 }, align 8
  %7 = getelementptr inbounds nuw { i64, i32 }, ptr %5, i32 0, i32 0
  store i64 %0, ptr %7, align 4
  %8 = getelementptr inbounds nuw { i64, i32 }, ptr %5, i32 0, i32 1
  store i32 %1, ptr %8, align 4
  call void @llvm.memcpy.p0.p0.i64(ptr align 4 %4, ptr align 4 %5, i64 12, i1 false)
  %9 = getelementptr inbounds nuw %"class.absl::Time", ptr %4, i32 0, i32 0
  call void @llvm.memcpy.p0.p0.i64(ptr align 4 %3, ptr align 4 %9, i64 12, i1 false), !tbaa.struct !9
  call void @llvm.memcpy.p0.p0.i64(ptr align 8 %6, ptr align 4 %3, i64 12, i1 false)
  %10 = load { i64, i32 }, ptr %6, align 8
  ret { i64, i32 } %10
}

; Function Attrs: mustprogress nounwind willreturn memory(none) uwtable
define dso_local { i64, i64 } @_ZN4absl10ToTimespecENS_4TimeE(i64 %0, i32 %1) #1 {
  %3 = alloca %struct.timespec, align 8
  %4 = alloca %"class.absl::Time", align 4
  %5 = alloca { i64, i32 }, align 4
  %6 = alloca %"class.absl::Duration", align 4
  %7 = alloca %"class.absl::Time", align 4
  %8 = alloca { i64, i32 }, align 4
  %9 = alloca { i64, i32 }, align 8
  %10 = alloca %"class.absl::Duration", align 4
  %11 = alloca { i64, i32 }, align 4
  %12 = alloca %"class.absl::Duration", align 4
  %13 = alloca { i64, i32 }, align 4
  %14 = alloca %"class.absl::Duration", align 4
  %15 = alloca { i64, i32 }, align 4
  %16 = alloca %"class.absl::Duration", align 4
  %17 = alloca { i64, i32 }, align 4
  %18 = alloca i32, align 4
  %19 = alloca %"class.absl::Duration", align 4
  %20 = alloca %"class.absl::Duration", align 4
  %21 = alloca { i64, i32 }, align 8
  %22 = alloca { i64, i32 }, align 4
  %23 = alloca { i64, i32 }, align 4
  %24 = getelementptr inbounds nuw { i64, i32 }, ptr %5, i32 0, i32 0
  store i64 %0, ptr %24, align 4
  %25 = getelementptr inbounds nuw { i64, i32 }, ptr %5, i32 0, i32 1
  store i32 %1, ptr %25, align 4
  call void @llvm.memcpy.p0.p0.i64(ptr align 4 %4, ptr align 4 %5, i64 12, i1 false)
  call void @llvm.lifetime.start.p0(i64 12, ptr %6) #15
  call void @llvm.memcpy.p0.p0.i64(ptr align 4 %7, ptr align 4 %4, i64 12, i1 false), !tbaa.struct !9
  call void @llvm.memcpy.p0.p0.i64(ptr align 4 %8, ptr align 4 %7, i64 12, i1 false)
  %26 = getelementptr inbounds nuw { i64, i32 }, ptr %8, i32 0, i32 0
  %27 = load i64, ptr %26, align 4
  %28 = getelementptr inbounds nuw { i64, i32 }, ptr %8, i32 0, i32 1
  %29 = load i32, ptr %28, align 4
  %30 = call { i64, i32 } @_ZN4absl13time_internal14ToUnixDurationENS_4TimeE(i64 %27, i32 %29) #14
  store { i64, i32 } %30, ptr %9, align 8
  call void @llvm.memcpy.p0.p0.i64(ptr align 4 %6, ptr align 8 %9, i64 12, i1 false)
  call void @llvm.memcpy.p0.p0.i64(ptr align 4 %10, ptr align 4 %6, i64 12, i1 false), !tbaa.struct !9
  call void @llvm.memcpy.p0.p0.i64(ptr align 4 %11, ptr align 4 %10, i64 12, i1 false)
  %31 = getelementptr inbounds nuw { i64, i32 }, ptr %11, i32 0, i32 0
  %32 = load i64, ptr %31, align 4
  %33 = getelementptr inbounds nuw { i64, i32 }, ptr %11, i32 0, i32 1
  %34 = load i32, ptr %33, align 4
  %35 = call noundef zeroext i1 @_ZN4absl13time_internal18IsInfiniteDurationENS_8DurationE(i64 %32, i32 %34) #14
  br i1 %35, label %61, label %36

36:                                               ; preds = %2
  call void @llvm.memcpy.p0.p0.i64(ptr align 4 %12, ptr align 4 %6, i64 12, i1 false), !tbaa.struct !9
  call void @llvm.memcpy.p0.p0.i64(ptr align 4 %13, ptr align 4 %12, i64 12, i1 false)
  %37 = getelementptr inbounds nuw { i64, i32 }, ptr %13, i32 0, i32 0
  %38 = load i64, ptr %37, align 4
  %39 = getelementptr inbounds nuw { i64, i32 }, ptr %13, i32 0, i32 1
  %40 = load i32, ptr %39, align 4
  %41 = call noundef i64 @_ZN4absl13time_internal8GetRepHiENS_8DurationE(i64 %38, i32 %40) #14
  %42 = getelementptr inbounds nuw %struct.timespec, ptr %3, i32 0, i32 0
  store i64 %41, ptr %42, align 8, !tbaa !71
  %43 = getelementptr inbounds nuw %struct.timespec, ptr %3, i32 0, i32 0
  %44 = load i64, ptr %43, align 8, !tbaa !71
  call void @llvm.memcpy.p0.p0.i64(ptr align 4 %14, ptr align 4 %6, i64 12, i1 false), !tbaa.struct !9
  call void @llvm.memcpy.p0.p0.i64(ptr align 4 %15, ptr align 4 %14, i64 12, i1 false)
  %45 = getelementptr inbounds nuw { i64, i32 }, ptr %15, i32 0, i32 0
  %46 = load i64, ptr %45, align 4
  %47 = getelementptr inbounds nuw { i64, i32 }, ptr %15, i32 0, i32 1
  %48 = load i32, ptr %47, align 4
  %49 = call noundef i64 @_ZN4absl13time_internal8GetRepHiENS_8DurationE(i64 %46, i32 %48) #14
  %50 = icmp eq i64 %44, %49
  br i1 %50, label %51, label %60

51:                                               ; preds = %36
  call void @llvm.memcpy.p0.p0.i64(ptr align 4 %16, ptr align 4 %6, i64 12, i1 false), !tbaa.struct !9
  call void @llvm.memcpy.p0.p0.i64(ptr align 4 %17, ptr align 4 %16, i64 12, i1 false)
  %52 = getelementptr inbounds nuw { i64, i32 }, ptr %17, i32 0, i32 0
  %53 = load i64, ptr %52, align 4
  %54 = getelementptr inbounds nuw { i64, i32 }, ptr %17, i32 0, i32 1
  %55 = load i32, ptr %54, align 4
  %56 = call noundef i32 @_ZN4absl13time_internal8GetRepLoENS_8DurationE(i64 %53, i32 %55) #14
  %57 = udiv i32 %56, 4
  %58 = zext i32 %57 to i64
  %59 = getelementptr inbounds nuw %struct.timespec, ptr %3, i32 0, i32 1
  store i64 %58, ptr %59, align 8, !tbaa !73
  store i32 1, ptr %18, align 4
  br label %81

60:                                               ; preds = %36
  br label %61

61:                                               ; preds = %60, %2
  call void @llvm.memcpy.p0.p0.i64(ptr align 4 %19, ptr align 4 %6, i64 12, i1 false), !tbaa.struct !9
  %62 = call { i64, i32 } @_ZN4absl12ZeroDurationEv() #14
  store { i64, i32 } %62, ptr %21, align 8
  call void @llvm.memcpy.p0.p0.i64(ptr align 4 %20, ptr align 8 %21, i64 12, i1 false)
  call void @llvm.memcpy.p0.p0.i64(ptr align 4 %22, ptr align 4 %19, i64 12, i1 false)
  %63 = getelementptr inbounds nuw { i64, i32 }, ptr %22, i32 0, i32 0
  %64 = load i64, ptr %63, align 4
  %65 = getelementptr inbounds nuw { i64, i32 }, ptr %22, i32 0, i32 1
  %66 = load i32, ptr %65, align 4
  call void @llvm.memcpy.p0.p0.i64(ptr align 4 %23, ptr align 4 %20, i64 12, i1 false)
  %67 = getelementptr inbounds nuw { i64, i32 }, ptr %23, i32 0, i32 0
  %68 = load i64, ptr %67, align 4
  %69 = getelementptr inbounds nuw { i64, i32 }, ptr %23, i32 0, i32 1
  %70 = load i32, ptr %69, align 4
  %71 = call noundef zeroext i1 @_ZN4abslgeENS_8DurationES0_(i64 %64, i32 %66, i64 %68, i32 %70) #14
  br i1 %71, label %72, label %76

72:                                               ; preds = %61
  %73 = call noundef i64 @_ZNSt14numeric_limitsIlE3maxEv() #15
  %74 = getelementptr inbounds nuw %struct.timespec, ptr %3, i32 0, i32 0
  store i64 %73, ptr %74, align 8, !tbaa !71
  %75 = getelementptr inbounds nuw %struct.timespec, ptr %3, i32 0, i32 1
  store i64 999999999, ptr %75, align 8, !tbaa !73
  br label %80

76:                                               ; preds = %61
  %77 = call noundef i64 @_ZNSt14numeric_limitsIlE3minEv() #15
  %78 = getelementptr inbounds nuw %struct.timespec, ptr %3, i32 0, i32 0
  store i64 %77, ptr %78, align 8, !tbaa !71
  %79 = getelementptr inbounds nuw %struct.timespec, ptr %3, i32 0, i32 1
  store i64 0, ptr %79, align 8, !tbaa !73
  br label %80

80:                                               ; preds = %76, %72
  store i32 1, ptr %18, align 4
  br label %81

81:                                               ; preds = %80, %51
  call void @llvm.lifetime.end.p0(i64 12, ptr %6) #15
  %82 = load { i64, i64 }, ptr %3, align 8
  ret { i64, i64 } %82
}